; Function Attrs: mustprogress uwtable
define { i64, i8 } @_ZNK4LIEF3ELF12CorePrStatus2spEv(ptr noundef nonnull align 8 dereferenceable(80) %0) local_unnamed_addr #3 align 2 personality ptr @__gxx_personality_v0 {
  %2 = getelementptr inbounds i8, ptr %0, i64 72
  %3 = load i32, ptr %2, align 8
  switch i32 %3, label %32 [
    i32 183, label %4
    i32 40, label %11
    i32 3, label %18
    i32 62, label %25
  ]

4:                                                ; preds = %1
  %5 = getelementptr inbounds i8, ptr %0, i64 48
  %6 = getelementptr inbounds i8, ptr %0, i64 76
  %7 = load i32, ptr %6, align 4
  %8 = tail call { i64, i8 } @_ZN4LIEF3ELF12get_reg_implINS0_12CorePrStatus9Registers7AARCH64EEEN2tl8expectedIm11lief_errorsEET_RKSt6vectorIhSaIhEENS0_6Header5CLASSENS0_4ARCHE(i32 noundef 31, ptr noundef nonnull align 8 dereferenceable(24) %5, i32 noundef %7, i32 noundef 183)
  %9 = extractvalue { i64, i8 } %8, 0
  %.sroa.6.0.extract.shift = and i64 %9, -4294967296
  %10 = extractvalue { i64, i8 } %8, 1
  br label %32

11:                                               ; preds = %1
  %12 = getelementptr inbounds i8, ptr %0, i64 48
  %13 = getelementptr inbounds i8, ptr %0, i64 76
  %14 = load i32, ptr %13, align 4
  %15 = tail call { i64, i8 } @_ZN4LIEF3ELF12get_reg_implINS0_12CorePrStatus9Registers3ARMEEEN2tl8expectedIm11lief_errorsEET_RKSt6vectorIhSaIhEENS0_6Header5CLASSENS0_4ARCHE(i32 noundef 13, ptr noundef nonnull align 8 dereferenceable(24) %12, i32 noundef %14, i32 noundef 40)
  %16 = extractvalue { i64, i8 } %15, 0
  %.sroa.6.0.extract.shift5 = and i64 %16, -4294967296
  %17 = extractvalue { i64, i8 } %15, 1
  br label %32

18:                                               ; preds = %1
  %19 = getelementptr inbounds i8, ptr %0, i64 48
  %20 = getelementptr inbounds i8, ptr %0, i64 76
  %21 = load i32, ptr %20, align 4
  %22 = tail call { i64, i8 } @_ZN4LIEF3ELF12get_reg_implINS0_12CorePrStatus9Registers3X86EEEN2tl8expectedIm11lief_errorsEET_RKSt6vectorIhSaIhEENS0_6Header5CLASSENS0_4ARCHE(i32 noundef 15, ptr noundef nonnull align 8 dereferenceable(24) %19, i32 noundef %21, i32 noundef 3)
  %23 = extractvalue { i64, i8 } %22, 0
  %.sroa.6.0.extract.shift7 = and i64 %23, -4294967296
  %24 = extractvalue { i64, i8 } %22, 1
  br label %32

25:                                               ; preds = %1
  %26 = getelementptr inbounds i8, ptr %0, i64 48
  %27 = getelementptr inbounds i8, ptr %0, i64 76
  %28 = load i32, ptr %27, align 4
  %29 = tail call { i64, i8 } @_ZN4LIEF3ELF12get_reg_implINS0_12CorePrStatus9Registers6X86_64EEEN2tl8expectedIm11lief_errorsEET_RKSt6vectorIhSaIhEENS0_6Header5CLASSENS0_4ARCHE(i32 noundef 19, ptr noundef nonnull align 8 dereferenceable(24) %26, i32 noundef %28, i32 noundef 62)
  %30 = extractvalue { i64, i8 } %29, 0
  %.sroa.6.0.extract.shift9 = and i64 %30, -4294967296
  %31 = extractvalue { i64, i8 } %29, 1
  br label %32

32:                                               ; preds = %1, %25, %18, %11, %4
  %.sroa.6.sroa.0.0 = phi i64 [ %.sroa.6.0.extract.shift9, %25 ], [ %.sroa.6.0.extract.shift7, %18 ], [ %.sroa.6.0.extract.shift5, %11 ], [ %.sroa.6.0.extract.shift, %4 ], [ 0, %1 ]
  %.sroa.01.0 = phi i64 [ %30, %25 ], [ %23, %18 ], [ %16, %11 ], [ %9, %4 ], [ 4, %1 ]
  %.sroa.6.sroa.5.0 = phi i8 [ %31, %25 ], [ %24, %18 ], [ %17, %11 ], [ %10, %4 ], [ 0, %1 ]
  %.sroa.01.0.insert.ext = and i64 %.sroa.01.0, 4294967295
  %.sroa.01.0.insert.insert = or disjoint i64 %.sroa.01.0.insert.ext, %.sroa.6.sroa.0.0
  %.fca.0.insert = insertvalue { i64, i8 } poison, i64 %.sroa.01.0.insert.insert, 0
  %.fca.1.insert = insertvalue { i64, i8 } %.fca.0.insert, i8 %.sroa.6.sroa.5.0, 1
  ret { i64, i8 } %.fca.1.insert
}